target datalayout = "e-m:e-p270:32:32-p271:32:32-p272:64:64-i64:64-i128:128-f80:128-n8:16:32:64-S128"
target triple = "x86_64-pc-linux-gnu"

%struct.AVFilterContext = type { ptr, ptr, ptr, ptr, ptr, i32, ptr, ptr, i32, ptr, ptr, i32, i32, ptr, ptr, ptr, ptr, i32, ptr, i32, i32 }
%struct.GuidedContext = type { ptr, %struct.FFFrameSync, i32, float, i32, i32, i32, i32, i32, i32, i32, i32, [4 x i32], [4 x i32], ptr, ptr, ptr, ptr, ptr, ptr, ptr, ptr, ptr, ptr, ptr, ptr, ptr }
%struct.FFFrameSync = type { ptr, ptr, i32, %struct.AVRational, i64, ptr, ptr, i32, i32, i8, i8, ptr, i32, i32, i32, i32 }
%struct.AVRational = type { i32, i32 }

; Function Attrs: inlinehint nounwind uwtable
define internal void @ff_outlink_set_status(ptr noundef %0, i32 noundef %1, i64 noundef %2) #4 {
  %4 = alloca ptr, align 8
  %5 = alloca i32, align 4
  %6 = alloca i64, align 8
  store ptr %0, ptr %4, align 8, !tbaa !38
  store i32 %1, ptr %5, align 4, !tbaa !28
  store i64 %2, ptr %6, align 8, !tbaa !44
  %7 = load ptr, ptr %4, align 8, !tbaa !38
  %8 = load i32, ptr %5, align 4, !tbaa !28
  %9 = load i64, ptr %6, align 8, !tbaa !44
  call void @ff_avfilter_link_set_in_status(ptr noundef %7, i32 noundef %8, i64 noundef %9)
  ret void
}

; Function Attrs: nounwind uwtable
define internal i32 @activate(ptr noundef %0) #2 {
  %2 = alloca i32, align 4
  %3 = alloca ptr, align 8
  %4 = alloca ptr, align 8
  %5 = alloca ptr, align 8
  %6 = alloca ptr, align 8
  %7 = alloca ptr, align 8
  %8 = alloca ptr, align 8
  %9 = alloca i32, align 4
  %10 = alloca i32, align 4
  %11 = alloca i64, align 8
  %12 = alloca i32, align 4
  %13 = alloca i32, align 4
  store ptr %0, ptr %3, align 8, !tbaa !4
  call void @llvm.lifetime.start.p0(i64 8, ptr %4) #10
  %14 = load ptr, ptr %3, align 8, !tbaa !4
  %15 = getelementptr inbounds nuw %struct.AVFilterContext, ptr %14, i32 0, i32 9
  %16 = load ptr, ptr %15, align 8, !tbaa !9
  store ptr %16, ptr %4, align 8, !tbaa !22
  call void @llvm.lifetime.start.p0(i64 8, ptr %5) #10
  %17 = load ptr, ptr %3, align 8, !tbaa !4
  %18 = getelementptr inbounds nuw %struct.AVFilterContext, ptr %17, i32 0, i32 7
  %19 = load ptr, ptr %18, align 8, !tbaa !37
  %20 = getelementptr inbounds ptr, ptr %19, i64 0
  %21 = load ptr, ptr %20, align 8, !tbaa !38
  store ptr %21, ptr %5, align 8, !tbaa !38
  call void @llvm.lifetime.start.p0(i64 8, ptr %6) #10
  %22 = load ptr, ptr %3, align 8, !tbaa !4
  %23 = getelementptr inbounds nuw %struct.AVFilterContext, ptr %22, i32 0, i32 4
  %24 = load ptr, ptr %23, align 8, !tbaa !40
  %25 = getelementptr inbounds ptr, ptr %24, i64 0
  %26 = load ptr, ptr %25, align 8, !tbaa !38
  store ptr %26, ptr %6, align 8, !tbaa !38
  call void @llvm.lifetime.start.p0(i64 8, ptr %7) #10
  store ptr null, ptr %7, align 8, !tbaa !41
  call void @llvm.lifetime.start.p0(i64 8, ptr %8) #10
  store ptr null, ptr %8, align 8, !tbaa !41
  call void @llvm.lifetime.start.p0(i64 4, ptr %9) #10
  call void @llvm.lifetime.start.p0(i64 4, ptr %10) #10
  call void @llvm.lifetime.start.p0(i64 8, ptr %11) #10
  %27 = load ptr, ptr %4, align 8, !tbaa !22
  %28 = getelementptr inbounds nuw %struct.GuidedContext, ptr %27, i32 0, i32 6
  %29 = load i32, ptr %28, align 8, !tbaa !29
  %30 = icmp ne i32 %29, 0
  br i1 %30, label %31, label %35

31:                                               ; preds = %1
  %32 = load ptr, ptr %4, align 8, !tbaa !22
  %33 = getelementptr inbounds nuw %struct.GuidedContext, ptr %32, i32 0, i32 1
  %34 = call i32 @ff_framesync_activate(ptr noundef %33)
  store i32 %34, ptr %2, align 4
  store i32 1, ptr %12, align 4
  br label %95

35:                                               ; preds = %1
  br label %36

36:                                               ; preds = %35
  call void @llvm.lifetime.start.p0(i64 4, ptr %13) #10
  %37 = load ptr, ptr %5, align 8, !tbaa !38
  %38 = call i32 @ff_outlink_get_status(ptr noundef %37)
  store i32 %38, ptr %13, align 4, !tbaa !28
  %39 = load i32, ptr %13, align 4, !tbaa !28
  %40 = icmp ne i32 %39, 0
  br i1 %40, label %41, label %44

41:                                               ; preds = %36
  %42 = load ptr, ptr %6, align 8, !tbaa !38
  %43 = load i32, ptr %13, align 4, !tbaa !28
  call void @ff_inlink_set_status(ptr noundef %42, i32 noundef %43)
  store i32 0, ptr %2, align 4
  store i32 1, ptr %12, align 4
  br label %45

44:                                               ; preds = %36
  store i32 0, ptr %12, align 4
  br label %45

45:                                               ; preds = %44, %41
  call void @llvm.lifetime.end.p0(i64 4, ptr %13) #10
  %46 = load i32, ptr %12, align 4
  switch i32 %46, label %95 [
    i32 0, label %47
  ]

47:                                               ; preds = %45
  br label %48

48:                                               ; preds = %47
  br label %49

49:                                               ; preds = %48
  %50 = load ptr, ptr %6, align 8, !tbaa !38
  %51 = call i32 @ff_inlink_consume_frame(ptr noundef %50, ptr noundef %7)
  store i32 %51, ptr %9, align 4, !tbaa !28
  %52 = icmp sgt i32 %51, 0
  br i1 %52, label %53, label %75

53:                                               ; preds = %49
  %54 = load ptr, ptr %3, align 8, !tbaa !4
  %55 = getelementptr inbounds nuw %struct.AVFilterContext, ptr %54, i32 0, i32 17
  %56 = load i32, ptr %55, align 8, !tbaa !43
  %57 = icmp ne i32 %56, 0
  br i1 %57, label %58, label %62

58:                                               ; preds = %53
  %59 = load ptr, ptr %5, align 8, !tbaa !38
  %60 = load ptr, ptr %7, align 8, !tbaa !41
  %61 = call i32 @ff_filter_frame(ptr noundef %59, ptr noundef %60)
  store i32 %61, ptr %2, align 4
  store i32 1, ptr %12, align 4
  br label %95

62:                                               ; preds = %53
  %63 = load ptr, ptr %3, align 8, !tbaa !4
  %64 = load ptr, ptr %7, align 8, !tbaa !41
  %65 = load ptr, ptr %7, align 8, !tbaa !41
  %66 = call i32 @filter_frame(ptr noundef %63, ptr noundef %8, ptr noundef %64, ptr noundef %65)
  store i32 %66, ptr %9, align 4, !tbaa !28
  call void @av_frame_free(ptr noundef %7)
  %67 = load i32, ptr %9, align 4, !tbaa !28
  %68 = icmp slt i32 %67, 0
  br i1 %68, label %69, label %71

69:                                               ; preds = %62
  %70 = load i32, ptr %9, align 4, !tbaa !28
  store i32 %70, ptr %2, align 4
  store i32 1, ptr %12, align 4
  br label %95

71:                                               ; preds = %62
  %72 = load ptr, ptr %5, align 8, !tbaa !38
  %73 = load ptr, ptr %8, align 8, !tbaa !41
  %74 = call i32 @ff_filter_frame(ptr noundef %72, ptr noundef %73)
  store i32 %74, ptr %9, align 4, !tbaa !28
  br label %75

75:                                               ; preds = %71, %49
  %76 = load i32, ptr %9, align 4, !tbaa !28
  %77 = icmp slt i32 %76, 0
  br i1 %77, label %78, label %80

78:                                               ; preds = %75
  %79 = load i32, ptr %9, align 4, !tbaa !28
  store i32 %79, ptr %2, align 4
  store i32 1, ptr %12, align 4
  br label %95

80:                                               ; preds = %75
  %81 = load ptr, ptr %6, align 8, !tbaa !38
  %82 = call i32 @ff_inlink_acknowledge_status(ptr noundef %81, ptr noundef %10, ptr noundef %11)
  %83 = icmp ne i32 %82, 0
  br i1 %83, label %84, label %88

84:                                               ; preds = %80
  %85 = load ptr, ptr %5, align 8, !tbaa !38
  %86 = load i32, ptr %10, align 4, !tbaa !28
  %87 = load i64, ptr %11, align 8, !tbaa !44
  call void @ff_outlink_set_status(ptr noundef %85, i32 noundef %86, i64 noundef %87)
  store i32 0, ptr %2, align 4
  store i32 1, ptr %12, align 4
  br label %95

88:                                               ; preds = %80
  %89 = load ptr, ptr %5, align 8, !tbaa !38
  %90 = call i32 @ff_outlink_frame_wanted(ptr noundef %89)
  %91 = icmp ne i32 %90, 0
  br i1 %91, label %92, label %94

92:                                               ; preds = %88
  %93 = load ptr, ptr %6, align 8, !tbaa !38
  call void @ff_inlink_request_frame(ptr noundef %93)
  br label %94

94:                                               ; preds = %92, %88
  store i32 0, ptr %2, align 4
  store i32 1, ptr %12, align 4
  br label %95

95:                                               ; preds = %94, %84, %78, %69, %58, %45, %31
  call void @llvm.lifetime.end.p0(i64 8, ptr %11) #10
  call void @llvm.lifetime.end.p0(i64 4, ptr %10) #10
  call void @llvm.lifetime.end.p0(i64 4, ptr %9) #10
  call void @llvm.lifetime.end.p0(i64 8, ptr %8) #10
  call void @llvm.lifetime.end.p0(i64 8, ptr %7) #10
  call void @llvm.lifetime.end.p0(i64 8, ptr %6) #10
  call void @llvm.lifetime.end.p0(i64 8, ptr %5) #10
  call void @llvm.lifetime.end.p0(i64 8, ptr %4) #10
  %96 = load i32, ptr %2, align 4
  ret i32 %96
}