; Function Attrs: nounwind uwtable
define internal i32 @activate(ptr noundef %0) #2 {
  %2 = alloca ptr, align 8
  %3 = alloca ptr, align 8
  %4 = alloca i32, align 4
  %5 = alloca i64, align 8
  %6 = getelementptr inbounds nuw i8, ptr %0, i64 72
  %7 = load ptr, ptr %6, align 8, !tbaa !4
  %8 = getelementptr inbounds nuw i8, ptr %0, i64 56
  %9 = load ptr, ptr %8, align 8, !tbaa !33
  %10 = load ptr, ptr %9, align 8, !tbaa !34
  %11 = getelementptr inbounds nuw i8, ptr %0, i64 32
  %12 = load ptr, ptr %11, align 8, !tbaa !36
  %13 = load ptr, ptr %12, align 8, !tbaa !34
  call void @llvm.lifetime.start.p0(i64 8, ptr nonnull %2) #9
  store ptr null, ptr %2, align 8, !tbaa !37
  call void @llvm.lifetime.start.p0(i64 8, ptr nonnull %3) #9
  call void @llvm.lifetime.start.p0(i64 4, ptr nonnull %4) #9
  call void @llvm.lifetime.start.p0(i64 8, ptr nonnull %5) #9
  %14 = getelementptr inbounds nuw i8, ptr %7, i64 120
  %15 = load i32, ptr %14, align 8, !tbaa !23
  %.not = icmp eq i32 %15, 0
  br i1 %.not, label %19, label %16

16:                                               ; preds = %1
  %17 = getelementptr inbounds nuw i8, ptr %7, i64 8
  %18 = tail call i32 @ff_framesync_activate(ptr noundef nonnull %17) #9
  br label %46

19:                                               ; preds = %1
  %20 = tail call i32 @ff_outlink_get_status(ptr noundef %10) #9
  %.not28 = icmp eq i32 %20, 0
  br i1 %.not28, label %.critedge, label %21

21:                                               ; preds = %19
  tail call void @ff_inlink_set_status(ptr noundef %13, i32 noundef %20) #9
  br label %46

.critedge:                                        ; preds = %19
  %22 = call i32 @ff_inlink_consume_frame(ptr noundef %13, ptr noundef nonnull %2) #9
  %23 = icmp sgt i32 %22, 0
  br i1 %23, label %24, label %36

24:                                               ; preds = %.critedge
  %25 = getelementptr inbounds nuw i8, ptr %0, i64 128
  %26 = load i32, ptr %25, align 8, !tbaa !39
  %.not29 = icmp eq i32 %26, 0
  %27 = load ptr, ptr %2, align 8, !tbaa !37
  br i1 %.not29, label %30, label %28

28:                                               ; preds = %24
  %29 = call i32 @ff_filter_frame(ptr noundef %10, ptr noundef %27) #9
  br label %46

30:                                               ; preds = %24
  %31 = call fastcc i32 @filter_frame(ptr noundef nonnull %0, ptr noundef %3, ptr noundef %27, ptr noundef %27)
  call void @av_frame_free(ptr noundef nonnull %2) #9
  %32 = icmp slt i32 %31, 0
  br i1 %32, label %46, label %33

33:                                               ; preds = %30
  %34 = load ptr, ptr %3, align 8, !tbaa !37
  %35 = call i32 @ff_filter_frame(ptr noundef %10, ptr noundef %34) #9
  br label %36

36:                                               ; preds = %33, %.critedge
  %.024 = phi i32 [ %35, %33 ], [ %22, %.critedge ]
  %37 = icmp slt i32 %.024, 0
  br i1 %37, label %46, label %38

38:                                               ; preds = %36
  %39 = call i32 @ff_inlink_acknowledge_status(ptr noundef %13, ptr noundef nonnull %4, ptr noundef nonnull %5) #9
  %.not30 = icmp eq i32 %39, 0
  br i1 %.not30, label %43, label %40

40:                                               ; preds = %38
  %41 = load i32, ptr %4, align 4, !tbaa !40
  %42 = load i64, ptr %5, align 8, !tbaa !41
  call void @ff_avfilter_link_set_in_status(ptr noundef %10, i32 noundef %41, i64 noundef %42) #9
  br label %46

43:                                               ; preds = %38
  %44 = call i32 @ff_outlink_frame_wanted(ptr noundef %10) #9
  %.not31 = icmp eq i32 %44, 0
  br i1 %.not31, label %46, label %45

45:                                               ; preds = %43
  call void @ff_inlink_request_frame(ptr noundef %13) #9
  br label %46

46:                                               ; preds = %21, %43, %45, %36, %30, %40, %28, %16
  %.0 = phi i32 [ %18, %16 ], [ %29, %28 ], [ 0, %40 ], [ 0, %21 ], [ %31, %30 ], [ %.024, %36 ], [ 0, %45 ], [ 0, %43 ]
  call void @llvm.lifetime.end.p0(i64 8, ptr nonnull %5) #9
  call void @llvm.lifetime.end.p0(i64 4, ptr nonnull %4) #9
  call void @llvm.lifetime.end.p0(i64 8, ptr nonnull %3) #9
  call void @llvm.lifetime.end.p0(i64 8, ptr nonnull %2) #9
  ret i32 %.0
}